target datalayout = "e-m:e-p270:32:32-p271:32:32-p272:64:64-i64:64-i128:128-f80:128-n8:16:32:64-S128"
target triple = "x86_64-pc-linux-gnu"

%"class.url::CanonOutputT" = type { ptr, ptr, i32, i32 }

; Function Attrs: mustprogress uwtable
define linkonce_odr noundef zeroext i1 @_ZN3url12CanonOutputTIcE4GrowEi(ptr noundef nonnull align 8 dereferenceable(24) %0, i32 noundef %1) #0 comdat align 2 {
  %3 = alloca i1, align 1
  %4 = alloca ptr, align 8
  %5 = alloca i32, align 4
  %6 = alloca i32, align 4
  %7 = alloca i32, align 4
  store ptr %0, ptr %4, align 8, !tbaa !8
  store i32 %1, ptr %5, align 4, !tbaa !10
  %8 = load ptr, ptr %4, align 8
  call void @llvm.lifetime.start.p0(i64 4, ptr %6) #8
  %9 = getelementptr inbounds nuw %"class.url::CanonOutputT", ptr %8, i32 0, i32 2
  %10 = load i32, ptr %9, align 8, !tbaa !18
  %11 = icmp eq i32 %10, 0
  br i1 %11, label %12, label %13

12:                                               ; preds = %2
  br label %16

13:                                               ; preds = %2
  %14 = getelementptr inbounds nuw %"class.url::CanonOutputT", ptr %8, i32 0, i32 2
  %15 = load i32, ptr %14, align 8, !tbaa !18
  br label %16

16:                                               ; preds = %13, %12
  %17 = phi i32 [ 16, %12 ], [ %15, %13 ]
  store i32 %17, ptr %6, align 4, !tbaa !10
  br label %18

18:                                               ; preds = %25, %16
  %19 = load i32, ptr %6, align 4, !tbaa !10
  %20 = icmp sge i32 %19, 1073741824
  br i1 %20, label %21, label %22

21:                                               ; preds = %18
  store i1 false, ptr %3, align 1
  store i32 1, ptr %7, align 4
  br label %37

22:                                               ; preds = %18
  %23 = load i32, ptr %6, align 4, !tbaa !10
  %24 = mul nsw i32 %23, 2
  store i32 %24, ptr %6, align 4, !tbaa !10
  br label %25

25:                                               ; preds = %22
  %26 = load i32, ptr %6, align 4, !tbaa !10
  %27 = getelementptr inbounds nuw %"class.url::CanonOutputT", ptr %8, i32 0, i32 2
  %28 = load i32, ptr %27, align 8, !tbaa !18
  %29 = load i32, ptr %5, align 4, !tbaa !10
  %30 = add nsw i32 %28, %29
  %31 = icmp slt i32 %26, %30
  br i1 %31, label %18, label %32, !llvm.loop !66

32:                                               ; preds = %25
  %33 = load i32, ptr %6, align 4, !tbaa !10
  %34 = load ptr, ptr %8, align 8, !tbaa !67
  %35 = getelementptr inbounds ptr, ptr %34, i64 2
  %36 = load ptr, ptr %35, align 8
  call void %36(ptr noundef nonnull align 8 dereferenceable(24) %8, i32 noundef %33)
  store i1 true, ptr %3, align 1
  store i32 1, ptr %7, align 4
  br label %37

37:                                               ; preds = %32, %21
  call void @llvm.lifetime.end.p0(i64 4, ptr %6) #8
  %38 = load i1, ptr %3, align 1
  ret i1 %38
}

; Function Attrs: mustprogress uwtable
define linkonce_odr void @_ZN3url12CanonOutputTIcE9push_backEc(ptr noundef nonnull align 8 dereferenceable(24) %0, i8 noundef signext %1) #0 comdat align 2 {
  %3 = alloca ptr, align 8
  %4 = alloca i8, align 1
  store ptr %0, ptr %3, align 8, !tbaa !8
  store i8 %1, ptr %4, align 1, !tbaa !12
  %5 = load ptr, ptr %3, align 8
  %6 = getelementptr inbounds nuw %"class.url::CanonOutputT", ptr %5, i32 0, i32 3
  %7 = load i32, ptr %6, align 4, !tbaa !16
  %8 = getelementptr inbounds nuw %"class.url::CanonOutputT", ptr %5, i32 0, i32 2
  %9 = load i32, ptr %8, align 8, !tbaa !18
  %10 = icmp slt i32 %7, %9
  br i1 %10, label %11, label %22

11:                                               ; preds = %2
  %12 = load i8, ptr %4, align 1, !tbaa !12
  %13 = getelementptr inbounds nuw %"class.url::CanonOutputT", ptr %5, i32 0, i32 1
  %14 = load ptr, ptr %13, align 8, !tbaa !19
  %15 = getelementptr inbounds nuw %"class.url::CanonOutputT", ptr %5, i32 0, i32 3
  %16 = load i32, ptr %15, align 4, !tbaa !16
  %17 = sext i32 %16 to i64
  %18 = getelementptr inbounds i8, ptr %14, i64 %17
  store i8 %12, ptr %18, align 1, !tbaa !12
  %19 = getelementptr inbounds nuw %"class.url::CanonOutputT", ptr %5, i32 0, i32 3
  %20 = load i32, ptr %19, align 4, !tbaa !16
  %21 = add nsw i32 %20, 1
  store i32 %21, ptr %19, align 4, !tbaa !16
  br label %36

22:                                               ; preds = %2
  %23 = call noundef zeroext i1 @_ZN3url12CanonOutputTIcE4GrowEi(ptr noundef nonnull align 8 dereferenceable(24) %5, i32 noundef 1)
  br i1 %23, label %25, label %24

24:                                               ; preds = %22
  br label %36

25:                                               ; preds = %22
  %26 = load i8, ptr %4, align 1, !tbaa !12
  %27 = getelementptr inbounds nuw %"class.url::CanonOutputT", ptr %5, i32 0, i32 1
  %28 = load ptr, ptr %27, align 8, !tbaa !19
  %29 = getelementptr inbounds nuw %"class.url::CanonOutputT", ptr %5, i32 0, i32 3
  %30 = load i32, ptr %29, align 4, !tbaa !16
  %31 = sext i32 %30 to i64
  %32 = getelementptr inbounds i8, ptr %28, i64 %31
  store i8 %26, ptr %32, align 1, !tbaa !12
  %33 = getelementptr inbounds nuw %"class.url::CanonOutputT", ptr %5, i32 0, i32 3
  %34 = load i32, ptr %33, align 4, !tbaa !16
  %35 = add nsw i32 %34, 1
  store i32 %35, ptr %33, align 4, !tbaa !16
  br label %36

36:                                               ; preds = %25, %24, %11
  ret void
}

; Function Attrs: inlinehint mustprogress uwtable
define linkonce_odr noundef i32 @_ZN3url7_itoa_sILm16EEEiiRAT__ci(i32 noundef %0, ptr noundef nonnull align 1 dereferenceable(16) %1, i32 noundef %2) #2 comdat {
  %4 = alloca i32, align 4
  %5 = alloca ptr, align 8
  %6 = alloca i32, align 4
  store i32 %0, ptr %4, align 4, !tbaa !10
  store ptr %1, ptr %5, align 8, !tbaa !3
  store i32 %2, ptr %6, align 4, !tbaa !10
  %7 = load i32, ptr %4, align 4, !tbaa !10
  %8 = load ptr, ptr %5, align 8, !tbaa !3
  %9 = getelementptr inbounds [16 x i8], ptr %8, i64 0, i64 0
  %10 = load i32, ptr %6, align 4, !tbaa !10
  %11 = call noundef i32 @_ZN3url7_itoa_sEiPcmi(i32 noundef %7, ptr noundef %9, i64 noundef 16, i32 noundef %10)
  ret i32 %11
}

; Function Attrs: mustprogress uwtable
define void @_ZN3url17AppendIPv4AddressEPKhPNS_12CanonOutputTIcEE(ptr noundef %0, ptr noundef %1) #0 {
  %3 = alloca ptr, align 8
  %4 = alloca ptr, align 8
  %5 = alloca i32, align 4
  %6 = alloca i32, align 4
  %7 = alloca [16 x i8], align 16
  %8 = alloca i32, align 4
  store ptr %0, ptr %3, align 8, !tbaa !3
  store ptr %1, ptr %4, align 8, !tbaa !8
  call void @llvm.lifetime.start.p0(i64 4, ptr %5) #8
  store i32 0, ptr %5, align 4, !tbaa !10
  br label %9

9:                                                ; preds = %44, %2
  %10 = load i32, ptr %5, align 4, !tbaa !10
  %11 = icmp slt i32 %10, 4
  br i1 %11, label %13, label %12

12:                                               ; preds = %9
  store i32 2, ptr %6, align 4
  call void @llvm.lifetime.end.p0(i64 4, ptr %5) #8
  br label %47

13:                                               ; preds = %9
  call void @llvm.lifetime.start.p0(i64 16, ptr %7) #8
  %14 = load ptr, ptr %3, align 8, !tbaa !3
  %15 = load i32, ptr %5, align 4, !tbaa !10
  %16 = sext i32 %15 to i64
  %17 = getelementptr inbounds i8, ptr %14, i64 %16
  %18 = load i8, ptr %17, align 1, !tbaa !12
  %19 = zext i8 %18 to i32
  %20 = call noundef i32 @_ZN3url7_itoa_sILm16EEEiiRAT__ci(i32 noundef %19, ptr noundef nonnull align 1 dereferenceable(16) %7, i32 noundef 10)
  call void @llvm.lifetime.start.p0(i64 4, ptr %8) #8
  store i32 0, ptr %8, align 4, !tbaa !10
  br label %21

21:                                               ; preds = %35, %13
  %22 = load i32, ptr %8, align 4, !tbaa !10
  %23 = sext i32 %22 to i64
  %24 = getelementptr inbounds [16 x i8], ptr %7, i64 0, i64 %23
  %25 = load i8, ptr %24, align 1, !tbaa !12
  %26 = sext i8 %25 to i32
  %27 = icmp ne i32 %26, 0
  br i1 %27, label %29, label %28

28:                                               ; preds = %21
  store i32 5, ptr %6, align 4
  call void @llvm.lifetime.end.p0(i64 4, ptr %8) #8
  br label %38

29:                                               ; preds = %21
  %30 = load ptr, ptr %4, align 8, !tbaa !8
  %31 = load i32, ptr %8, align 4, !tbaa !10
  %32 = sext i32 %31 to i64
  %33 = getelementptr inbounds [16 x i8], ptr %7, i64 0, i64 %32
  %34 = load i8, ptr %33, align 1, !tbaa !12
  call void @_ZN3url12CanonOutputTIcE9push_backEc(ptr noundef nonnull align 8 dereferenceable(24) %30, i8 noundef signext %34)
  br label %35

35:                                               ; preds = %29
  %36 = load i32, ptr %8, align 4, !tbaa !10
  %37 = add nsw i32 %36, 1
  store i32 %37, ptr %8, align 4, !tbaa !10
  br label %21, !llvm.loop !13

38:                                               ; preds = %28
  %39 = load i32, ptr %5, align 4, !tbaa !10
  %40 = icmp ne i32 %39, 3
  br i1 %40, label %41, label %43

41:                                               ; preds = %38
  %42 = load ptr, ptr %4, align 8, !tbaa !8
  call void @_ZN3url12CanonOutputTIcE9push_backEc(ptr noundef nonnull align 8 dereferenceable(24) %42, i8 noundef signext 46)
  br label %43

43:                                               ; preds = %41, %38
  call void @llvm.lifetime.end.p0(i64 16, ptr %7) #8
  br label %44

44:                                               ; preds = %43
  %45 = load i32, ptr %5, align 4, !tbaa !10
  %46 = add nsw i32 %45, 1
  store i32 %46, ptr %5, align 4, !tbaa !10
  br label %9, !llvm.loop !15

47:                                               ; preds = %12
  ret void
}