; Function Attrs: mustprogress uwtable
define void @_ZN3url17AppendIPv4AddressEPKhPNS_12CanonOutputTIcEE(ptr noundef readonly captures(none) %0, ptr noundef %1) local_unnamed_addr #0 {
  %3 = alloca [16 x i8], align 16
  %4 = getelementptr inbounds nuw i8, ptr %1, i64 20
  %5 = getelementptr inbounds nuw i8, ptr %1, i64 16
  %.sink3.in.i = getelementptr inbounds nuw i8, ptr %1, i64 8
  br label %6

.loopexit:                                        ; preds = %_ZN3url12CanonOutputTIcE9push_backEc.exit20, %_ZN3url12CanonOutputTIcE9push_backEc.exit20.thread
  ret void

6:                                                ; preds = %2, %_ZN3url12CanonOutputTIcE9push_backEc.exit20
  %indvars.iv28 = phi i64 [ 0, %2 ], [ %indvars.iv.next29, %_ZN3url12CanonOutputTIcE9push_backEc.exit20 ]
  call void @llvm.lifetime.start.p0(i64 16, ptr nonnull %3) #9
  %7 = getelementptr inbounds nuw i8, ptr %0, i64 %indvars.iv28
  %8 = load i8, ptr %7, align 1, !tbaa !3
  %9 = zext i8 %8 to i32
  %10 = call noundef i32 @_ZN3url7_itoa_sEiPcmi(i32 noundef %9, ptr noundef nonnull align 1 dereferenceable(16) %3, i64 noundef 16, i32 noundef 10)
  %11 = load i8, ptr %3, align 16, !tbaa !3
  %.not24 = icmp eq i8 %11, 0
  br i1 %.not24, label %._crit_edge, label %.lr.ph.preheader

.lr.ph.preheader:                                 ; preds = %6
  %.pre = load i32, ptr %4, align 4, !tbaa !6
  br label %.lr.ph

._crit_edge:                                      ; preds = %_ZN3url12CanonOutputTIcE9push_backEc.exit, %6
  %.not10 = icmp eq i64 %indvars.iv28, 3
  br i1 %.not10, label %_ZN3url12CanonOutputTIcE9push_backEc.exit20.thread, label %32

_ZN3url12CanonOutputTIcE9push_backEc.exit20.thread: ; preds = %._crit_edge
  call void @llvm.lifetime.end.p0(i64 16, ptr nonnull %3) #9
  br label %.loopexit

.lr.ph:                                           ; preds = %.lr.ph.preheader, %_ZN3url12CanonOutputTIcE9push_backEc.exit
  %12 = phi i32 [ %.pre, %.lr.ph.preheader ], [ %29, %_ZN3url12CanonOutputTIcE9push_backEc.exit ]
  %indvars.iv = phi i64 [ 0, %.lr.ph.preheader ], [ %indvars.iv.next, %_ZN3url12CanonOutputTIcE9push_backEc.exit ]
  %13 = phi i8 [ %11, %.lr.ph.preheader ], [ %31, %_ZN3url12CanonOutputTIcE9push_backEc.exit ]
  %14 = load i32, ptr %5, align 8, !tbaa !11
  %15 = icmp slt i32 %12, %14
  br i1 %15, label %_ZN3url12CanonOutputTIcE4GrowEi.exit.sink.split.i, label %select.unfold.i.preheader.i

select.unfold.i.preheader.i:                      ; preds = %.lr.ph
  %16 = icmp eq i32 %14, 0
  %spec.select = select i1 %16, i32 16, i32 %14
  br label %select.unfold.i.i

select.unfold.i.i:                                ; preds = %select.unfold.i.preheader.i, %18
  %.0.i.i = phi i32 [ %19, %18 ], [ %spec.select, %select.unfold.i.preheader.i ]
  %17 = icmp slt i32 %.0.i.i, 1073741824
  br i1 %17, label %18, label %_ZN3url12CanonOutputTIcE9push_backEc.exit

18:                                               ; preds = %select.unfold.i.i
  %19 = shl nsw i32 %.0.i.i, 1
  %.not.i = icmp sgt i32 %19, %14
  br i1 %.not.i, label %20, label %select.unfold.i.i, !llvm.loop !12

20:                                               ; preds = %18
  %21 = load ptr, ptr %1, align 8, !tbaa !14
  %22 = getelementptr inbounds nuw i8, ptr %21, i64 16
  %23 = load ptr, ptr %22, align 8
  call void %23(ptr noundef nonnull align 8 dereferenceable(24) %1, i32 noundef %19)
  %24 = load i32, ptr %4, align 4, !tbaa !6
  br label %_ZN3url12CanonOutputTIcE4GrowEi.exit.sink.split.i

_ZN3url12CanonOutputTIcE4GrowEi.exit.sink.split.i: ; preds = %.lr.ph, %20
  %.sink.i = phi i32 [ %24, %20 ], [ %12, %.lr.ph ]
  %.sink3.i = load ptr, ptr %.sink3.in.i, align 8, !tbaa !16
  %25 = sext i32 %.sink.i to i64
  %26 = getelementptr inbounds i8, ptr %.sink3.i, i64 %25
  store i8 %13, ptr %26, align 1, !tbaa !3
  %27 = load i32, ptr %4, align 4, !tbaa !6
  %28 = add nsw i32 %27, 1
  store i32 %28, ptr %4, align 4, !tbaa !6
  br label %_ZN3url12CanonOutputTIcE9push_backEc.exit

_ZN3url12CanonOutputTIcE9push_backEc.exit:        ; preds = %select.unfold.i.i, %_ZN3url12CanonOutputTIcE4GrowEi.exit.sink.split.i
  %29 = phi i32 [ %28, %_ZN3url12CanonOutputTIcE4GrowEi.exit.sink.split.i ], [ %12, %select.unfold.i.i ]
  %indvars.iv.next = add nuw nsw i64 %indvars.iv, 1
  %30 = getelementptr inbounds nuw [16 x i8], ptr %3, i64 0, i64 %indvars.iv.next
  %31 = load i8, ptr %30, align 1, !tbaa !3
  %.not = icmp eq i8 %31, 0
  br i1 %.not, label %._crit_edge, label %.lr.ph, !llvm.loop !17

32:                                               ; preds = %._crit_edge
  %33 = load i32, ptr %4, align 4, !tbaa !6
  %34 = load i32, ptr %5, align 8, !tbaa !11
  %35 = icmp slt i32 %33, %34
  br i1 %35, label %_ZN3url12CanonOutputTIcE4GrowEi.exit.sink.split.i16, label %select.unfold.i.preheader.i11

select.unfold.i.preheader.i11:                    ; preds = %32
  %36 = icmp eq i32 %34, 0
  %spec.select35 = select i1 %36, i32 16, i32 %34
  br label %select.unfold.i.i13

select.unfold.i.i13:                              ; preds = %select.unfold.i.preheader.i11, %38
  %.0.i.i14 = phi i32 [ %39, %38 ], [ %spec.select35, %select.unfold.i.preheader.i11 ]
  %37 = icmp slt i32 %.0.i.i14, 1073741824
  br i1 %37, label %38, label %_ZN3url12CanonOutputTIcE9push_backEc.exit20

38:                                               ; preds = %select.unfold.i.i13
  %39 = shl nsw i32 %.0.i.i14, 1
  %.not.i15 = icmp sgt i32 %39, %34
  br i1 %.not.i15, label %40, label %select.unfold.i.i13, !llvm.loop !12

40:                                               ; preds = %38
  %41 = load ptr, ptr %1, align 8, !tbaa !14
  %42 = getelementptr inbounds nuw i8, ptr %41, i64 16
  %43 = load ptr, ptr %42, align 8
  call void %43(ptr noundef nonnull align 8 dereferenceable(24) %1, i32 noundef %39)
  %44 = load i32, ptr %4, align 4, !tbaa !6
  br label %_ZN3url12CanonOutputTIcE4GrowEi.exit.sink.split.i16

_ZN3url12CanonOutputTIcE4GrowEi.exit.sink.split.i16: ; preds = %32, %40
  %.sink.i17 = phi i32 [ %44, %40 ], [ %33, %32 ]
  %.sink3.i19 = load ptr, ptr %.sink3.in.i, align 8, !tbaa !16
  %45 = sext i32 %.sink.i17 to i64
  %46 = getelementptr inbounds i8, ptr %.sink3.i19, i64 %45
  store i8 46, ptr %46, align 1, !tbaa !3
  %47 = load i32, ptr %4, align 4, !tbaa !6
  %48 = add nsw i32 %47, 1
  store i32 %48, ptr %4, align 4, !tbaa !6
  br label %_ZN3url12CanonOutputTIcE9push_backEc.exit20

_ZN3url12CanonOutputTIcE9push_backEc.exit20:      ; preds = %select.unfold.i.i13, %_ZN3url12CanonOutputTIcE4GrowEi.exit.sink.split.i16
  call void @llvm.lifetime.end.p0(i64 16, ptr nonnull %3) #9
  %indvars.iv.next29 = add nuw nsw i64 %indvars.iv28, 1
  %exitcond.not = icmp eq i64 %indvars.iv.next29, 4
  br i1 %exitcond.not, label %.loopexit, label %6, !llvm.loop !18
}